; Function Attrs: mustprogress nounwind uwtable
define dso_local void @_ZN10ResKeyPath3popEv(ptr nocapture noundef nonnull align 8 dereferenceable(24) %this) local_unnamed_addr #5 align 2 personality ptr @__gxx_personality_v0 {
entry:
  %_M_prev.i = getelementptr inbounds i8, ptr %this, i64 8
  %0 = load ptr, ptr %_M_prev.i, align 8
  %_M_size.i.i.i = getelementptr inbounds i8, ptr %this, i64 16
  %1 = load i64, ptr %_M_size.i.i.i, align 8
  %sub.i.i.i = add i64 %1, -1
  store i64 %sub.i.i.i, ptr %_M_size.i.i.i, align 8
  tail call void @_ZNSt8__detail15_List_node_base9_M_unhookEv(ptr noundef nonnull align 8 dereferenceable(16) %0) #17
  %_M_storage.i.i.i = getelementptr inbounds i8, ptr %0, i64 16
  tail call void @_ZNSt7__cxx1112basic_stringIcSt11char_traitsIcESaIcEED1Ev(ptr noundef nonnull align 8 dereferenceable(32) %_M_storage.i.i.i) #17
  tail call void @_ZdlPv(ptr noundef %0) #19
  ret void
}